
mmult.elf:     file format elf32-littleriscv


Disassembly of section .text:

10000000 <_start>:
10000000:	10010137          	lui	x2,0x10010
10000004:	ff010113          	addi	x2,x2,-16 # 1000fff0 <A+0x77e8>
10000008:	784000ef          	jal	x1,1000078c <main>

1000000c <run_and_time>:
1000000c:	f7010113          	addi	x2,x2,-144
10000010:	08112623          	sw	x1,140(x2)
10000014:	08812423          	sw	x8,136(x2)
10000018:	08912223          	sw	x9,132(x2)
1000001c:	09212023          	sw	x18,128(x2)
10000020:	800004b7          	lui	x9,0x80000
10000024:	0004ac23          	sw	x0,24(x9) # 80000018 <A+0x6fff7810>
10000028:	000500e7          	jalr	x10
1000002c:	00050413          	mv	x8,x10
10000030:	00000517          	auipc	x10,0x0
10000034:	79450513          	addi	x10,x10,1940 # 100007c4 <main+0x38>
10000038:	0104a903          	lw	x18,16(x9)
1000003c:	0144a483          	lw	x9,20(x9)
10000040:	650000ef          	jal	x1,10000690 <uwrite_int8s>
10000044:	00010593          	mv	x11,x2
10000048:	08000613          	li	x12,128
1000004c:	00040513          	mv	x10,x8
10000050:	5ac000ef          	jal	x1,100005fc <uint32_to_ascii_hex>
10000054:	63c000ef          	jal	x1,10000690 <uwrite_int8s>
10000058:	00000517          	auipc	x10,0x0
1000005c:	77850513          	addi	x10,x10,1912 # 100007d0 <main+0x44>
10000060:	630000ef          	jal	x1,10000690 <uwrite_int8s>
10000064:	00010593          	mv	x11,x2
10000068:	08000613          	li	x12,128
1000006c:	00090513          	mv	x10,x18
10000070:	58c000ef          	jal	x1,100005fc <uint32_to_ascii_hex>
10000074:	61c000ef          	jal	x1,10000690 <uwrite_int8s>
10000078:	00000517          	auipc	x10,0x0
1000007c:	76850513          	addi	x10,x10,1896 # 100007e0 <main+0x54>
10000080:	610000ef          	jal	x1,10000690 <uwrite_int8s>
10000084:	00010593          	mv	x11,x2
10000088:	08000613          	li	x12,128
1000008c:	00048513          	mv	x10,x9
10000090:	56c000ef          	jal	x1,100005fc <uint32_to_ascii_hex>
10000094:	5fc000ef          	jal	x1,10000690 <uwrite_int8s>
10000098:	00000517          	auipc	x10,0x0
1000009c:	76050513          	addi	x10,x10,1888 # 100007f8 <main+0x6c>
100000a0:	5f0000ef          	jal	x1,10000690 <uwrite_int8s>
100000a4:	08c12083          	lw	x1,140(x2)
100000a8:	08812403          	lw	x8,136(x2)
100000ac:	08412483          	lw	x9,132(x2)
100000b0:	08012903          	lw	x18,128(x2)
100000b4:	09010113          	addi	x2,x2,144
100000b8:	00008067          	ret

100000bc <times>:
100000bc:	00050613          	mv	x12,x10
100000c0:	41f5d693          	srai	x13,x11,0x1f
100000c4:	41f55513          	srai	x10,x10,0x1f
100000c8:	00c54733          	xor	x14,x10,x12
100000cc:	00b6c7b3          	xor	x15,x13,x11
100000d0:	40a70733          	sub	x14,x14,x10
100000d4:	40d787b3          	sub	x15,x15,x13
100000d8:	00000513          	li	x10,0
100000dc:	02058c63          	beqz	x11,10000114 <times+0x58>
100000e0:	0017f693          	andi	x13,x15,1
100000e4:	4017d793          	srai	x15,x15,0x1
100000e8:	00068463          	beqz	x13,100000f0 <times+0x34>
100000ec:	00e50533          	add	x10,x10,x14
100000f0:	00171713          	slli	x14,x14,0x1
100000f4:	fe0796e3          	bnez	x15,100000e0 <times+0x24>
100000f8:	00064663          	bltz	x12,10000104 <times+0x48>
100000fc:	0005c663          	bltz	x11,10000108 <times+0x4c>
10000100:	00008067          	ret
10000104:	0005c663          	bltz	x11,10000110 <times+0x54>
10000108:	40a00533          	neg	x10,x10
1000010c:	00008067          	ret
10000110:	00008067          	ret
10000114:	fe064ae3          	bltz	x12,10000108 <times+0x4c>
10000118:	00008067          	ret

1000011c <mmult>:
1000011c:	fc010113          	addi	x2,x2,-64
10000120:	02912a23          	sw	x9,52(x2)
10000124:	03412423          	sw	x20,40(x2)
10000128:	03612023          	sw	x22,32(x2)
1000012c:	01712e23          	sw	x23,28(x2)
10000130:	01812c23          	sw	x24,24(x2)
10000134:	01a12823          	sw	x26,16(x2)
10000138:	02112e23          	sw	x1,60(x2)
1000013c:	02812c23          	sw	x8,56(x2)
10000140:	03212823          	sw	x18,48(x2)
10000144:	03312623          	sw	x19,44(x2)
10000148:	03512223          	sw	x21,36(x2)
1000014c:	01912a23          	sw	x25,20(x2)
10000150:	01b12623          	sw	x27,12(x2)
10000154:	00008d17          	auipc	x26,0x8
10000158:	6b4d0d13          	addi	x26,x26,1716 # 10008808 <A>
1000015c:	00008497          	auipc	x9,0x8
10000160:	7ac48493          	addi	x9,x9,1964 # 10008908 <A+0x100>
10000164:	00000c17          	auipc	x24,0x0
10000168:	6a4c0c13          	addi	x24,x24,1700 # 10000808 <S>
1000016c:	00000b93          	li	x23,0
10000170:	00000a13          	li	x20,0
10000174:	04000b13          	li	x22,64
10000178:	002b9a93          	slli	x21,x23,0x2
1000017c:	00004997          	auipc	x19,0x4
10000180:	68c98993          	addi	x19,x19,1676 # 10004808 <B>
10000184:	01aa8ab3          	add	x21,x21,x26
10000188:	000c0c93          	mv	x25,x24
1000018c:	00000913          	li	x18,0
10000190:	000ca023          	sw	x0,0(x25)
10000194:	00098d93          	mv	x27,x19
10000198:	000a8413          	mv	x8,x21
1000019c:	000da583          	lw	x11,0(x27)
100001a0:	00042503          	lw	x10,0(x8)
100001a4:	00440413          	addi	x8,x8,4
100001a8:	100d8d93          	addi	x27,x27,256
100001ac:	f11ff0ef          	jal	x1,100000bc <times>
100001b0:	000ca703          	lw	x14,0(x25)
100001b4:	00e50533          	add	x10,x10,x14
100001b8:	00aca023          	sw	x10,0(x25)
100001bc:	fe9410e3          	bne	x8,x9,1000019c <mmult+0x80>
100001c0:	00190913          	addi	x18,x18,1
100001c4:	00aa0a33          	add	x20,x20,x10
100001c8:	004c8c93          	addi	x25,x25,4
100001cc:	00498993          	addi	x19,x19,4
100001d0:	fd6910e3          	bne	x18,x22,10000190 <mmult+0x74>
100001d4:	040b8b93          	addi	x23,x23,64
100001d8:	000017b7          	lui	x15,0x1
100001dc:	10040493          	addi	x9,x8,256
100001e0:	100c0c13          	addi	x24,x24,256
100001e4:	f8fb9ae3          	bne	x23,x15,10000178 <mmult+0x5c>
100001e8:	03c12083          	lw	x1,60(x2)
100001ec:	03812403          	lw	x8,56(x2)
100001f0:	03412483          	lw	x9,52(x2)
100001f4:	03012903          	lw	x18,48(x2)
100001f8:	02c12983          	lw	x19,44(x2)
100001fc:	02412a83          	lw	x21,36(x2)
10000200:	02012b03          	lw	x22,32(x2)
10000204:	01c12b83          	lw	x23,28(x2)
10000208:	01812c03          	lw	x24,24(x2)
1000020c:	01412c83          	lw	x25,20(x2)
10000210:	01012d03          	lw	x26,16(x2)
10000214:	00c12d83          	lw	x27,12(x2)
10000218:	000a0513          	mv	x10,x20
1000021c:	02812a03          	lw	x20,40(x2)
10000220:	04010113          	addi	x2,x2,64
10000224:	00008067          	ret

10000228 <generate_matrices>:
10000228:	00008517          	auipc	x10,0x8
1000022c:	5e050513          	addi	x10,x10,1504 # 10008808 <A>
10000230:	00000613          	li	x12,0
10000234:	04000593          	li	x11,64
10000238:	00050693          	mv	x13,x10
1000023c:	00000793          	li	x15,0
10000240:	40f60733          	sub	x14,x12,x15
10000244:	00173713          	seqz	x14,x14
10000248:	00e6a023          	sw	x14,0(x13)
1000024c:	00178793          	addi	x15,x15,1 # 1001 <_start-0xfffefff>
10000250:	00468693          	addi	x13,x13,4
10000254:	feb796e3          	bne	x15,x11,10000240 <generate_matrices+0x18>
10000258:	00160613          	addi	x12,x12,1
1000025c:	10050513          	addi	x10,x10,256
10000260:	fcf61ce3          	bne	x12,x15,10000238 <generate_matrices+0x10>
10000264:	00004597          	auipc	x11,0x4
10000268:	5a458593          	addi	x11,x11,1444 # 10004808 <B>
1000026c:	00000613          	li	x12,0
10000270:	04000693          	li	x13,64
10000274:	00001537          	lui	x10,0x1
10000278:	00058713          	mv	x14,x11
1000027c:	00000793          	li	x15,0
10000280:	00f72023          	sw	x15,0(x14)
10000284:	00178793          	addi	x15,x15,1
10000288:	00470713          	addi	x14,x14,4
1000028c:	fed79ae3          	bne	x15,x13,10000280 <generate_matrices+0x58>
10000290:	04060613          	addi	x12,x12,64
10000294:	10058593          	addi	x11,x11,256
10000298:	fea610e3          	bne	x12,x10,10000278 <generate_matrices+0x50>
1000029c:	00008067          	ret

100002a0 <ascii_dec_to_uint8>:
100002a0:	00050693          	mv	x13,x10
100002a4:	00350893          	addi	x17,x10,3 # 1003 <_start-0xfffeffd>
100002a8:	00900813          	li	x16,9
100002ac:	00000513          	li	x10,0
100002b0:	0006c603          	lbu	x12,0(x13)
100002b4:	00351793          	slli	x15,x10,0x3
100002b8:	00151593          	slli	x11,x10,0x1
100002bc:	00b787b3          	add	x15,x15,x11
100002c0:	fd078793          	addi	x15,x15,-48
100002c4:	fd060713          	addi	x14,x12,-48
100002c8:	0ff77713          	zext.b	x14,x14
100002cc:	00168693          	addi	x13,x13,1
100002d0:	00c787b3          	add	x15,x15,x12
100002d4:	00060863          	beqz	x12,100002e4 <ascii_dec_to_uint8+0x44>
100002d8:	00e86463          	bltu	x16,x14,100002e0 <ascii_dec_to_uint8+0x40>
100002dc:	0ff7f513          	zext.b	x10,x15
100002e0:	fd1698e3          	bne	x13,x17,100002b0 <ascii_dec_to_uint8+0x10>
100002e4:	00008067          	ret

100002e8 <ascii_dec_to_uint16>:
100002e8:	00050693          	mv	x13,x10
100002ec:	00550893          	addi	x17,x10,5
100002f0:	00900813          	li	x16,9
100002f4:	00000513          	li	x10,0
100002f8:	0006c603          	lbu	x12,0(x13)
100002fc:	00351793          	slli	x15,x10,0x3
10000300:	00151593          	slli	x11,x10,0x1
10000304:	00b787b3          	add	x15,x15,x11
10000308:	fd078793          	addi	x15,x15,-48
1000030c:	fd060713          	addi	x14,x12,-48
10000310:	0ff77713          	zext.b	x14,x14
10000314:	00168693          	addi	x13,x13,1
10000318:	00c787b3          	add	x15,x15,x12
1000031c:	00060a63          	beqz	x12,10000330 <ascii_dec_to_uint16+0x48>
10000320:	00e86663          	bltu	x16,x14,1000032c <ascii_dec_to_uint16+0x44>
10000324:	01079513          	slli	x10,x15,0x10
10000328:	01055513          	srli	x10,x10,0x10
1000032c:	fd1696e3          	bne	x13,x17,100002f8 <ascii_dec_to_uint16+0x10>
10000330:	00008067          	ret

10000334 <ascii_dec_to_uint32>:
10000334:	00050693          	mv	x13,x10
10000338:	00950893          	addi	x17,x10,9
1000033c:	00900813          	li	x16,9
10000340:	00000513          	li	x10,0
10000344:	0006c583          	lbu	x11,0(x13)
10000348:	00351713          	slli	x14,x10,0x3
1000034c:	00151793          	slli	x15,x10,0x1
10000350:	fd058613          	addi	x12,x11,-48
10000354:	00f707b3          	add	x15,x14,x15
10000358:	0ff67613          	zext.b	x12,x12
1000035c:	00168693          	addi	x13,x13,1
10000360:	fd078793          	addi	x15,x15,-48
10000364:	00058863          	beqz	x11,10000374 <ascii_dec_to_uint32+0x40>
10000368:	00c86463          	bltu	x16,x12,10000370 <ascii_dec_to_uint32+0x3c>
1000036c:	00f58533          	add	x10,x11,x15
10000370:	fd169ae3          	bne	x13,x17,10000344 <ascii_dec_to_uint32+0x10>
10000374:	00008067          	ret

10000378 <ascii_hex_to_uint8>:
10000378:	00050613          	mv	x12,x10
1000037c:	00250e13          	addi	x28,x10,2
10000380:	00900313          	li	x6,9
10000384:	00000513          	li	x10,0
10000388:	00500893          	li	x17,5
1000038c:	00064783          	lbu	x15,0(x12)
10000390:	00451693          	slli	x13,x10,0x4
10000394:	00068713          	mv	x14,x13
10000398:	fd078593          	addi	x11,x15,-48
1000039c:	f9f78813          	addi	x16,x15,-97
100003a0:	fd068693          	addi	x13,x13,-48
100003a4:	fa970713          	addi	x14,x14,-87
100003a8:	0ff5f593          	zext.b	x11,x11
100003ac:	00f686b3          	add	x13,x13,x15
100003b0:	0ff87813          	zext.b	x16,x16
100003b4:	00f70733          	add	x14,x14,x15
100003b8:	00078a63          	beqz	x15,100003cc <ascii_hex_to_uint8+0x54>
100003bc:	00b36a63          	bltu	x6,x11,100003d0 <ascii_hex_to_uint8+0x58>
100003c0:	0ff6f513          	zext.b	x10,x13
100003c4:	00160613          	addi	x12,x12,1
100003c8:	fcce12e3          	bne	x28,x12,1000038c <ascii_hex_to_uint8+0x14>
100003cc:	00008067          	ret
100003d0:	0108e663          	bltu	x17,x16,100003dc <ascii_hex_to_uint8+0x64>
100003d4:	0ff77513          	zext.b	x10,x14
100003d8:	fedff06f          	j	100003c4 <ascii_hex_to_uint8+0x4c>
100003dc:	fbf78713          	addi	x14,x15,-65
100003e0:	0ff77713          	zext.b	x14,x14
100003e4:	fee8e0e3          	bltu	x17,x14,100003c4 <ascii_hex_to_uint8+0x4c>
100003e8:	00451513          	slli	x10,x10,0x4
100003ec:	fc978793          	addi	x15,x15,-55
100003f0:	00f507b3          	add	x15,x10,x15
100003f4:	0ff7f513          	zext.b	x10,x15
100003f8:	fcdff06f          	j	100003c4 <ascii_hex_to_uint8+0x4c>

100003fc <ascii_hex_to_uint16>:
100003fc:	00050613          	mv	x12,x10
10000400:	00450e13          	addi	x28,x10,4
10000404:	00900313          	li	x6,9
10000408:	00000513          	li	x10,0
1000040c:	00500893          	li	x17,5
10000410:	00064783          	lbu	x15,0(x12)
10000414:	00451693          	slli	x13,x10,0x4
10000418:	00068713          	mv	x14,x13
1000041c:	fd078593          	addi	x11,x15,-48
10000420:	f9f78813          	addi	x16,x15,-97
10000424:	fd068693          	addi	x13,x13,-48
10000428:	fa970713          	addi	x14,x14,-87
1000042c:	0ff5f593          	zext.b	x11,x11
10000430:	00f686b3          	add	x13,x13,x15
10000434:	0ff87813          	zext.b	x16,x16
10000438:	00f70733          	add	x14,x14,x15
1000043c:	00078c63          	beqz	x15,10000454 <ascii_hex_to_uint16+0x58>
10000440:	00b36c63          	bltu	x6,x11,10000458 <ascii_hex_to_uint16+0x5c>
10000444:	01069513          	slli	x10,x13,0x10
10000448:	01055513          	srli	x10,x10,0x10
1000044c:	00160613          	addi	x12,x12,1
10000450:	fcce10e3          	bne	x28,x12,10000410 <ascii_hex_to_uint16+0x14>
10000454:	00008067          	ret
10000458:	0108e863          	bltu	x17,x16,10000468 <ascii_hex_to_uint16+0x6c>
1000045c:	01071513          	slli	x10,x14,0x10
10000460:	01055513          	srli	x10,x10,0x10
10000464:	fe9ff06f          	j	1000044c <ascii_hex_to_uint16+0x50>
10000468:	fbf78713          	addi	x14,x15,-65
1000046c:	0ff77713          	zext.b	x14,x14
10000470:	fce8eee3          	bltu	x17,x14,1000044c <ascii_hex_to_uint16+0x50>
10000474:	00451513          	slli	x10,x10,0x4
10000478:	fc978793          	addi	x15,x15,-55
1000047c:	00f507b3          	add	x15,x10,x15
10000480:	01079513          	slli	x10,x15,0x10
10000484:	01055513          	srli	x10,x10,0x10
10000488:	fc5ff06f          	j	1000044c <ascii_hex_to_uint16+0x50>

1000048c <ascii_hex_to_uint32>:
1000048c:	00050613          	mv	x12,x10
10000490:	00850e13          	addi	x28,x10,8
10000494:	00900313          	li	x6,9
10000498:	00000513          	li	x10,0
1000049c:	00500893          	li	x17,5
100004a0:	0100006f          	j	100004b0 <ascii_hex_to_uint32+0x24>
100004a4:	00d78533          	add	x10,x15,x13
100004a8:	00160613          	addi	x12,x12,1
100004ac:	04ce0063          	beq	x28,x12,100004ec <ascii_hex_to_uint32+0x60>
100004b0:	00064783          	lbu	x15,0(x12)
100004b4:	00451693          	slli	x13,x10,0x4
100004b8:	00068713          	mv	x14,x13
100004bc:	fd078593          	addi	x11,x15,-48
100004c0:	f9f78813          	addi	x16,x15,-97
100004c4:	0ff5f593          	zext.b	x11,x11
100004c8:	fd068693          	addi	x13,x13,-48
100004cc:	0ff87813          	zext.b	x16,x16
100004d0:	fa970713          	addi	x14,x14,-87
100004d4:	00078c63          	beqz	x15,100004ec <ascii_hex_to_uint32+0x60>
100004d8:	fcb376e3          	bgeu	x6,x11,100004a4 <ascii_hex_to_uint32+0x18>
100004dc:	0108ea63          	bltu	x17,x16,100004f0 <ascii_hex_to_uint32+0x64>
100004e0:	00160613          	addi	x12,x12,1
100004e4:	00e78533          	add	x10,x15,x14
100004e8:	fcce14e3          	bne	x28,x12,100004b0 <ascii_hex_to_uint32+0x24>
100004ec:	00008067          	ret
100004f0:	fbf78713          	addi	x14,x15,-65
100004f4:	0ff77713          	zext.b	x14,x14
100004f8:	fae8e8e3          	bltu	x17,x14,100004a8 <ascii_hex_to_uint32+0x1c>
100004fc:	00451513          	slli	x10,x10,0x4
10000500:	fc978793          	addi	x15,x15,-55
10000504:	00a78533          	add	x10,x15,x10
10000508:	fa1ff06f          	j	100004a8 <ascii_hex_to_uint32+0x1c>

1000050c <uint8_to_ascii_hex>:
1000050c:	00100713          	li	x14,1
10000510:	00050793          	mv	x15,x10
10000514:	00058513          	mv	x10,x11
10000518:	06c77063          	bgeu	x14,x12,10000578 <uint8_to_ascii_hex+0x6c>
1000051c:	4047d713          	srai	x14,x15,0x4
10000520:	00900593          	li	x11,9
10000524:	0047d693          	srli	x13,x15,0x4
10000528:	02e5da63          	bge	x11,x14,1000055c <uint8_to_ascii_hex+0x50>
1000052c:	05768693          	addi	x13,x13,87
10000530:	00d50023          	sb	x13,0(x10)
10000534:	00200713          	li	x14,2
10000538:	04e60463          	beq	x12,x14,10000580 <uint8_to_ascii_hex+0x74>
1000053c:	00f7f793          	andi	x15,x15,15
10000540:	00900693          	li	x13,9
10000544:	00250713          	addi	x14,x10,2
10000548:	02f6e063          	bltu	x13,x15,10000568 <uint8_to_ascii_hex+0x5c>
1000054c:	03078793          	addi	x15,x15,48
10000550:	00f500a3          	sb	x15,1(x10)
10000554:	00070023          	sb	x0,0(x14)
10000558:	00008067          	ret
1000055c:	03068693          	addi	x13,x13,48
10000560:	00d50023          	sb	x13,0(x10)
10000564:	fd1ff06f          	j	10000534 <uint8_to_ascii_hex+0x28>
10000568:	05778793          	addi	x15,x15,87
1000056c:	00f500a3          	sb	x15,1(x10)
10000570:	00070023          	sb	x0,0(x14)
10000574:	00008067          	ret
10000578:	00058713          	mv	x14,x11
1000057c:	fd9ff06f          	j	10000554 <uint8_to_ascii_hex+0x48>
10000580:	00150713          	addi	x14,x10,1
10000584:	fd1ff06f          	j	10000554 <uint8_to_ascii_hex+0x48>

10000588 <uint16_to_ascii_hex>:
10000588:	00050813          	mv	x16,x10
1000058c:	00058693          	mv	x13,x11
10000590:	00058513          	mv	x10,x11
10000594:	00000713          	li	x14,0
10000598:	00900e13          	li	x28,9
1000059c:	00400313          	li	x6,4
100005a0:	00070e93          	mv	x29,x14
100005a4:	00170713          	addi	x14,x14,1
100005a8:	40e007b3          	neg	x15,x14
100005ac:	00279793          	slli	x15,x15,0x2
100005b0:	01078793          	addi	x15,x15,16
100005b4:	40f857b3          	sra	x15,x16,x15
100005b8:	00f7f793          	andi	x15,x15,15
100005bc:	03078893          	addi	x17,x15,48
100005c0:	05778593          	addi	x11,x15,87
100005c4:	02c77463          	bgeu	x14,x12,100005ec <uint16_to_ascii_hex+0x64>
100005c8:	00fe6e63          	bltu	x28,x15,100005e4 <uint16_to_ascii_hex+0x5c>
100005cc:	01168023          	sb	x17,0(x13)
100005d0:	00168693          	addi	x13,x13,1
100005d4:	fc6716e3          	bne	x14,x6,100005a0 <uint16_to_ascii_hex+0x18>
100005d8:	00e50733          	add	x14,x10,x14
100005dc:	00070023          	sb	x0,0(x14)
100005e0:	00008067          	ret
100005e4:	00b68023          	sb	x11,0(x13)
100005e8:	fe9ff06f          	j	100005d0 <uint16_to_ascii_hex+0x48>
100005ec:	000e8713          	mv	x14,x29
100005f0:	00e50733          	add	x14,x10,x14
100005f4:	00070023          	sb	x0,0(x14)
100005f8:	00008067          	ret

100005fc <uint32_to_ascii_hex>:
100005fc:	00050893          	mv	x17,x10
10000600:	00058813          	mv	x16,x11
10000604:	00058513          	mv	x10,x11
10000608:	01c00693          	li	x13,28
1000060c:	00000713          	li	x14,0
10000610:	00900f13          	li	x30,9
10000614:	00800e93          	li	x29,8
10000618:	0140006f          	j	1000062c <uint32_to_ascii_hex+0x30>
1000061c:	01c80023          	sb	x28,0(x16)
10000620:	ffc68693          	addi	x13,x13,-4
10000624:	00180813          	addi	x16,x16,1
10000628:	03d70a63          	beq	x14,x29,1000065c <uint32_to_ascii_hex+0x60>
1000062c:	00d8d7b3          	srl	x15,x17,x13
10000630:	00f7f793          	andi	x15,x15,15
10000634:	00070593          	mv	x11,x14
10000638:	00170713          	addi	x14,x14,1
1000063c:	03078e13          	addi	x28,x15,48
10000640:	05778313          	addi	x6,x15,87
10000644:	02c77263          	bgeu	x14,x12,10000668 <uint32_to_ascii_hex+0x6c>
10000648:	fcff7ae3          	bgeu	x30,x15,1000061c <uint32_to_ascii_hex+0x20>
1000064c:	00680023          	sb	x6,0(x16)
10000650:	ffc68693          	addi	x13,x13,-4
10000654:	00180813          	addi	x16,x16,1
10000658:	fdd71ae3          	bne	x14,x29,1000062c <uint32_to_ascii_hex+0x30>
1000065c:	00e50733          	add	x14,x10,x14
10000660:	00070023          	sb	x0,0(x14)
10000664:	00008067          	ret
10000668:	00058713          	mv	x14,x11
1000066c:	00e50733          	add	x14,x10,x14
10000670:	00070023          	sb	x0,0(x14)
10000674:	00008067          	ret

10000678 <uwrite_int8>:
10000678:	80000737          	lui	x14,0x80000
1000067c:	00072783          	lw	x15,0(x14) # 80000000 <A+0x6fff77f8>
10000680:	0017f793          	andi	x15,x15,1
10000684:	fe078ce3          	beqz	x15,1000067c <uwrite_int8+0x4>
10000688:	00a72423          	sw	x10,8(x14)
1000068c:	00008067          	ret

10000690 <uwrite_int8s>:
10000690:	00054603          	lbu	x12,0(x10)
10000694:	02060463          	beqz	x12,100006bc <uwrite_int8s+0x2c>
10000698:	00150693          	addi	x13,x10,1
1000069c:	80000737          	lui	x14,0x80000
100006a0:	00072783          	lw	x15,0(x14) # 80000000 <A+0x6fff77f8>
100006a4:	0017f793          	andi	x15,x15,1
100006a8:	fe078ce3          	beqz	x15,100006a0 <uwrite_int8s+0x10>
100006ac:	00c72423          	sw	x12,8(x14)
100006b0:	0006c603          	lbu	x12,0(x13)
100006b4:	00168693          	addi	x13,x13,1
100006b8:	fe0614e3          	bnez	x12,100006a0 <uwrite_int8s+0x10>
100006bc:	00008067          	ret

100006c0 <uread_int8>:
100006c0:	80000737          	lui	x14,0x80000
100006c4:	00072783          	lw	x15,0(x14) # 80000000 <A+0x6fff77f8>
100006c8:	0027f793          	andi	x15,x15,2
100006cc:	fe078ce3          	beqz	x15,100006c4 <uread_int8+0x4>
100006d0:	00472683          	lw	x13,4(x14)
100006d4:	00d00793          	li	x15,13
100006d8:	80000737          	lui	x14,0x80000
100006dc:	0ff6f513          	zext.b	x10,x13
100006e0:	00f50e63          	beq	x10,x15,100006fc <uread_int8+0x3c>
100006e4:	00072783          	lw	x15,0(x14) # 80000000 <A+0x6fff77f8>
100006e8:	0017f793          	andi	x15,x15,1
100006ec:	fe078ce3          	beqz	x15,100006e4 <uread_int8+0x24>
100006f0:	0ff6f693          	zext.b	x13,x13
100006f4:	00d72423          	sw	x13,8(x14)
100006f8:	00008067          	ret
100006fc:	00000617          	auipc	x12,0x0
10000700:	0fd60613          	addi	x12,x12,253 # 100007f9 <main+0x6d>
10000704:	00d00693          	li	x13,13
10000708:	00072783          	lw	x15,0(x14)
1000070c:	0017f793          	andi	x15,x15,1
10000710:	fe078ce3          	beqz	x15,10000708 <uread_int8+0x48>
10000714:	00d72423          	sw	x13,8(x14)
10000718:	00064683          	lbu	x13,0(x12)
1000071c:	00160613          	addi	x12,x12,1
10000720:	fe0694e3          	bnez	x13,10000708 <uread_int8+0x48>
10000724:	00008067          	ret

10000728 <strcmp>:
10000728:	00054783          	lbu	x15,0(x10)
1000072c:	0005c703          	lbu	x14,0(x11)
10000730:	02f71263          	bne	x14,x15,10000754 <strcmp+0x2c>
10000734:	00150513          	addi	x10,x10,1
10000738:	00158593          	addi	x11,x11,1
1000073c:	02078063          	beqz	x15,1000075c <strcmp+0x34>
10000740:	00054783          	lbu	x15,0(x10)
10000744:	0005c703          	lbu	x14,0(x11)
10000748:	00150513          	addi	x10,x10,1
1000074c:	00158593          	addi	x11,x11,1
10000750:	fee786e3          	beq	x15,x14,1000073c <strcmp+0x14>
10000754:	00100513          	li	x10,1
10000758:	00008067          	ret
1000075c:	00000513          	li	x10,0
10000760:	00008067          	ret

10000764 <strlen>:
10000764:	00054783          	lbu	x15,0(x10)
10000768:	00050713          	mv	x14,x10
1000076c:	00000513          	li	x10,0
10000770:	00078c63          	beqz	x15,10000788 <strlen+0x24>
10000774:	00150513          	addi	x10,x10,1
10000778:	00a707b3          	add	x15,x14,x10
1000077c:	0007c783          	lbu	x15,0(x15)
10000780:	fe079ae3          	bnez	x15,10000774 <strlen+0x10>
10000784:	00008067          	ret
10000788:	00008067          	ret

Disassembly of section .text.startup:

1000078c <main>:
1000078c:	ff010113          	addi	x2,x2,-16
10000790:	00112623          	sw	x1,12(x2)
10000794:	a95ff0ef          	jal	x1,10000228 <generate_matrices>
10000798:	00000517          	auipc	x10,0x0
1000079c:	98450513          	addi	x10,x10,-1660 # 1000011c <mmult>
100007a0:	86dff0ef          	jal	x1,1000000c <run_and_time>
100007a4:	00000517          	auipc	x10,0x0
100007a8:	05850513          	addi	x10,x10,88 # 100007fc <main+0x70>
100007ac:	ce1ff0ef          	jal	x1,1000048c <ascii_hex_to_uint32>
100007b0:	000500e7          	jalr	x10
100007b4:	00c12083          	lw	x1,12(x2)
100007b8:	00000513          	li	x10,0
100007bc:	01010113          	addi	x2,x2,16
100007c0:	00008067          	ret

Disassembly of section .rodata.str1.4:

100007c4 <.rodata.str1.4>:
100007c4:	6552                	flw	f10,20(x2)
100007c6:	746c7573          	csrrci	x10,0x746,24
100007ca:	203a                	fld	f0,392(x2)
100007cc:	0000                	unimp
100007ce:	0000                	unimp
100007d0:	0a0d                	addi	x20,x20,3
100007d2:	6c637943          	fmadd.h	f18,f6,f6,f13
100007d6:	2065                	jal	1000087e <S+0x76>
100007d8:	6e756f43          	fmadd.q	f30,f10,f7,f13,unknown
100007dc:	3a74                	fld	f13,240(x12)
100007de:	0020                	addi	x8,x2,8
100007e0:	0a0d                	addi	x20,x20,3
100007e2:	6e49                	lui	x28,0x12
100007e4:	75727473          	csrrci	x8,0x757,4
100007e8:	6f697463          	bgeu	x18,x22,10000ed0 <S+0x6c8>
100007ec:	206e                	fld	f0,216(x2)
100007ee:	6e756f43          	fmadd.q	f30,f10,f7,f13,unknown
100007f2:	3a74                	fld	f13,240(x12)
100007f4:	0020                	addi	x8,x2,8
100007f6:	0000                	unimp
100007f8:	0a0d                	addi	x20,x20,3
100007fa:	0000                	unimp
100007fc:	3034                	fld	f13,96(x8)
100007fe:	3030                	fld	f12,96(x8)
10000800:	3030                	fld	f12,96(x8)
10000802:	3030                	fld	f12,96(x8)
	...

Disassembly of section .bss:

10000808 <S>:
	...

10004808 <B>:
	...

10008808 <A>:
	...

Disassembly of section .comment:

00000000 <.comment>:
   0:	3a434347          	fmsub.d	f6,f6,f4,f7,rmm
   4:	2820                	fld	f8,80(x8)
   6:	69466953          	0x69466953
   a:	6576                	flw	f10,92(x2)
   c:	4720                	lw	x8,72(x14)
   e:	4d2d4343          	fmadd.h	f6,f26,f18,f9,rmm
  12:	7465                	lui	x8,0xffff9
  14:	6c61                	lui	x24,0x18
  16:	3120                	fld	f8,96(x10)
  18:	2e30                	fld	f12,88(x12)
  1a:	2e32                	fld	f28,264(x2)
  1c:	2d30                	fld	f12,88(x10)
  1e:	3032                	fld	f0,296(x2)
  20:	3032                	fld	f0,296(x2)
  22:	312e                	fld	f2,232(x2)
  24:	2e32                	fld	f28,264(x2)
  26:	2938                	fld	f14,80(x10)
  28:	3120                	fld	f8,96(x10)
  2a:	2e30                	fld	f12,88(x12)
  2c:	2e32                	fld	f28,264(x2)
  2e:	0030                	addi	x12,x2,8

Disassembly of section .riscv.attributes:

00000000 <.riscv.attributes>:
   0:	1b41                	addi	x22,x22,-16
   2:	0000                	unimp
   4:	7200                	flw	f8,32(x12)
   6:	7369                	lui	x6,0xffffa
   8:	01007663          	bgeu	x0,x16,14 <_start-0xfffffec>
   c:	0011                	c.nop	4
   e:	0000                	unimp
  10:	1004                	addi	x9,x2,32
  12:	7205                	lui	x4,0xfffe1
  14:	3376                	fld	f6,376(x2)
  16:	6932                	flw	f18,12(x2)
  18:	7032                	flw	f0,44(x2)
  1a:	0030                	addi	x12,x2,8
